opt subtitle "Microchip Technology Omniscient Code Generator (Lite mode) build 55553"

opt pagewidth 120

	opt lm

	processor	16F877A
clrc	macro
	bcf	3,0
	endm
clrz	macro
	bcf	3,2
	endm
setc	macro
	bsf	3,0
	endm
setz	macro
	bsf	3,2
	endm
skipc	macro
	btfss	3,0
	endm
skipz	macro
	btfss	3,2
	endm
skipnc	macro
	btfsc	3,0
	endm
skipnz	macro
	btfsc	3,2
	endm
indf	equ	0
indf0	equ	0
pc	equ	2
pcl	equ	2
status	equ	3
fsr	equ	4
fsr0	equ	4
c	equ	1
z	equ	0
pclath	equ	10
# 46 "C:\Program Files (x86)\Microchip\xc8\v1.30\include\pic16f877a.h"
INDF equ 00h ;# 
# 52 "C:\Program Files (x86)\Microchip\xc8\v1.30\include\pic16f877a.h"
TMR0 equ 01h ;# 
# 58 "C:\Program Files (x86)\Microchip\xc8\v1.30\include\pic16f877a.h"
PCL equ 02h ;# 
# 64 "C:\Program Files (x86)\Microchip\xc8\v1.30\include\pic16f877a.h"
STATUS equ 03h ;# 
# 151 "C:\Program Files (x86)\Microchip\xc8\v1.30\include\pic16f877a.h"
FSR equ 04h ;# 
# 157 "C:\Program Files (x86)\Microchip\xc8\v1.30\include\pic16f877a.h"
PORTA equ 05h ;# 
# 206 "C:\Program Files (x86)\Microchip\xc8\v1.30\include\pic16f877a.h"
PORTB equ 06h ;# 
# 267 "C:\Program Files (x86)\Microchip\xc8\v1.30\include\pic16f877a.h"
PORTC equ 07h ;# 
# 328 "C:\Program Files (x86)\Microchip\xc8\v1.30\include\pic16f877a.h"
PORTD equ 08h ;# 
# 389 "C:\Program Files (x86)\Microchip\xc8\v1.30\include\pic16f877a.h"
PORTE equ 09h ;# 
# 420 "C:\Program Files (x86)\Microchip\xc8\v1.30\include\pic16f877a.h"
PCLATH equ 0Ah ;# 
# 439 "C:\Program Files (x86)\Microchip\xc8\v1.30\include\pic16f877a.h"
INTCON equ 0Bh ;# 
# 516 "C:\Program Files (x86)\Microchip\xc8\v1.30\include\pic16f877a.h"
PIR1 equ 0Ch ;# 
# 577 "C:\Program Files (x86)\Microchip\xc8\v1.30\include\pic16f877a.h"
PIR2 equ 0Dh ;# 
# 616 "C:\Program Files (x86)\Microchip\xc8\v1.30\include\pic16f877a.h"
TMR1 equ 0Eh ;# 
# 622 "C:\Program Files (x86)\Microchip\xc8\v1.30\include\pic16f877a.h"
TMR1L equ 0Eh ;# 
# 628 "C:\Program Files (x86)\Microchip\xc8\v1.30\include\pic16f877a.h"
TMR1H equ 0Fh ;# 
# 634 "C:\Program Files (x86)\Microchip\xc8\v1.30\include\pic16f877a.h"
T1CON equ 010h ;# 
# 708 "C:\Program Files (x86)\Microchip\xc8\v1.30\include\pic16f877a.h"
TMR2 equ 011h ;# 
# 714 "C:\Program Files (x86)\Microchip\xc8\v1.30\include\pic16f877a.h"
T2CON equ 012h ;# 
# 784 "C:\Program Files (x86)\Microchip\xc8\v1.30\include\pic16f877a.h"
SSPBUF equ 013h ;# 
# 790 "C:\Program Files (x86)\Microchip\xc8\v1.30\include\pic16f877a.h"
SSPCON equ 014h ;# 
# 859 "C:\Program Files (x86)\Microchip\xc8\v1.30\include\pic16f877a.h"
CCPR1 equ 015h ;# 
# 865 "C:\Program Files (x86)\Microchip\xc8\v1.30\include\pic16f877a.h"
CCPR1L equ 015h ;# 
# 871 "C:\Program Files (x86)\Microchip\xc8\v1.30\include\pic16f877a.h"
CCPR1H equ 016h ;# 
# 877 "C:\Program Files (x86)\Microchip\xc8\v1.30\include\pic16f877a.h"
CCP1CON equ 017h ;# 
# 934 "C:\Program Files (x86)\Microchip\xc8\v1.30\include\pic16f877a.h"
RCSTA equ 018h ;# 
# 1028 "C:\Program Files (x86)\Microchip\xc8\v1.30\include\pic16f877a.h"
TXREG equ 019h ;# 
# 1034 "C:\Program Files (x86)\Microchip\xc8\v1.30\include\pic16f877a.h"
RCREG equ 01Ah ;# 
# 1040 "C:\Program Files (x86)\Microchip\xc8\v1.30\include\pic16f877a.h"
CCPR2 equ 01Bh ;# 
# 1046 "C:\Program Files (x86)\Microchip\xc8\v1.30\include\pic16f877a.h"
CCPR2L equ 01Bh ;# 
# 1052 "C:\Program Files (x86)\Microchip\xc8\v1.30\include\pic16f877a.h"
CCPR2H equ 01Ch ;# 
# 1058 "C:\Program Files (x86)\Microchip\xc8\v1.30\include\pic16f877a.h"
CCP2CON equ 01Dh ;# 
# 1115 "C:\Program Files (x86)\Microchip\xc8\v1.30\include\pic16f877a.h"
ADRESH equ 01Eh ;# 
# 1121 "C:\Program Files (x86)\Microchip\xc8\v1.30\include\pic16f877a.h"
ADCON0 equ 01Fh ;# 
# 1216 "C:\Program Files (x86)\Microchip\xc8\v1.30\include\pic16f877a.h"
OPTION_REG equ 081h ;# 
# 1285 "C:\Program Files (x86)\Microchip\xc8\v1.30\include\pic16f877a.h"
TRISA equ 085h ;# 
# 1334 "C:\Program Files (x86)\Microchip\xc8\v1.30\include\pic16f877a.h"
TRISB equ 086h ;# 
# 1395 "C:\Program Files (x86)\Microchip\xc8\v1.30\include\pic16f877a.h"
TRISC equ 087h ;# 
# 1456 "C:\Program Files (x86)\Microchip\xc8\v1.30\include\pic16f877a.h"
TRISD equ 088h ;# 
# 1517 "C:\Program Files (x86)\Microchip\xc8\v1.30\include\pic16f877a.h"
TRISE equ 089h ;# 
# 1573 "C:\Program Files (x86)\Microchip\xc8\v1.30\include\pic16f877a.h"
PIE1 equ 08Ch ;# 
# 1634 "C:\Program Files (x86)\Microchip\xc8\v1.30\include\pic16f877a.h"
PIE2 equ 08Dh ;# 
# 1673 "C:\Program Files (x86)\Microchip\xc8\v1.30\include\pic16f877a.h"
PCON equ 08Eh ;# 
# 1706 "C:\Program Files (x86)\Microchip\xc8\v1.30\include\pic16f877a.h"
SSPCON2 equ 091h ;# 
# 1767 "C:\Program Files (x86)\Microchip\xc8\v1.30\include\pic16f877a.h"
PR2 equ 092h ;# 
# 1773 "C:\Program Files (x86)\Microchip\xc8\v1.30\include\pic16f877a.h"
SSPADD equ 093h ;# 
# 1779 "C:\Program Files (x86)\Microchip\xc8\v1.30\include\pic16f877a.h"
SSPSTAT equ 094h ;# 
# 1947 "C:\Program Files (x86)\Microchip\xc8\v1.30\include\pic16f877a.h"
TXSTA equ 098h ;# 
# 2027 "C:\Program Files (x86)\Microchip\xc8\v1.30\include\pic16f877a.h"
SPBRG equ 099h ;# 
# 2033 "C:\Program Files (x86)\Microchip\xc8\v1.30\include\pic16f877a.h"
CMCON equ 09Ch ;# 
# 2102 "C:\Program Files (x86)\Microchip\xc8\v1.30\include\pic16f877a.h"
CVRCON equ 09Dh ;# 
# 2166 "C:\Program Files (x86)\Microchip\xc8\v1.30\include\pic16f877a.h"
ADRESL equ 09Eh ;# 
# 2172 "C:\Program Files (x86)\Microchip\xc8\v1.30\include\pic16f877a.h"
ADCON1 equ 09Fh ;# 
# 2230 "C:\Program Files (x86)\Microchip\xc8\v1.30\include\pic16f877a.h"
EEDATA equ 010Ch ;# 
# 2236 "C:\Program Files (x86)\Microchip\xc8\v1.30\include\pic16f877a.h"
EEADR equ 010Dh ;# 
# 2242 "C:\Program Files (x86)\Microchip\xc8\v1.30\include\pic16f877a.h"
EEDATH equ 010Eh ;# 
# 2248 "C:\Program Files (x86)\Microchip\xc8\v1.30\include\pic16f877a.h"
EEADRH equ 010Fh ;# 
# 2254 "C:\Program Files (x86)\Microchip\xc8\v1.30\include\pic16f877a.h"
EECON1 equ 018Ch ;# 
# 2298 "C:\Program Files (x86)\Microchip\xc8\v1.30\include\pic16f877a.h"
EECON2 equ 018Dh ;# 
	FNCALL	_main,_init
	FNROOT	_main
	FNCALL	intlevel1,_isr
	global	intlevel1
	FNROOT	intlevel1
	global	_sPORTB
	global	isr@count
	global	_INTCONbits
_INTCONbits	set	0xB
	global	_PORTB
_PORTB	set	0x6
	global	_TMR0
_TMR0	set	0x1
	global	_GIE
_GIE	set	0x5F
	global	_TMR0IE
_TMR0IE	set	0x5D
	global	_TMR0IF
_TMR0IF	set	0x5A
	global	_ADCON1
_ADCON1	set	0x9F
	global	_OPTION_REGbits
_OPTION_REGbits	set	0x81
	global	_TRISB
_TRISB	set	0x86
psect	text0,local,class=CODE,delta=2,merge=1
; #config settings
	file	"C:\Program Files (x86)\Microchip\xc8\v1.30\include\pic16f877a.h"
	line	2758
global __ptext0
__ptext0:	;psect for function _isr
global __CFG_BOREN$ON
__CFG_BOREN$ON equ 0x0
global __CFG_CPD$OFF
__CFG_CPD$OFF equ 0x0
global __CFG_FOSC$HS
__CFG_FOSC$HS equ 0x0
global __CFG_WDTE$OFF
__CFG_WDTE$OFF equ 0x0
global __CFG_CP$OFF
__CFG_CP$OFF equ 0x0
global __CFG_LVP$OFF
__CFG_LVP$OFF equ 0x0
global __CFG_PWRTE$ON
__CFG_PWRTE$ON equ 0x0
	file	"interrupt.as"
	line	#
psect cinit,class=CODE,delta=2
global start_initialization
start_initialization:

global __initialization
__initialization:
psect	bssCOMMON,class=COMMON,space=1,noexec
global __pbssCOMMON
__pbssCOMMON:
_sPORTB:
       ds      1

isr@count:
       ds      1

	line	#
; Clear objects allocated to COMMON
psect cinit,class=CODE,delta=2,merge=1
	clrf	((__pbssCOMMON)+0)&07Fh
	clrf	((__pbssCOMMON)+1)&07Fh
psect cinit,class=CODE,delta=2,merge=1
global end_of_initialization,__end_of__initialization

;End of C runtime variable initialization code

end_of_initialization:
__end_of__initialization:clrf status
ljmp _main	;jump to C main() function
psect	cstackCOMMON,class=COMMON,space=1,noexec
global __pcstackCOMMON
__pcstackCOMMON:
?_init:	; 0 bytes @ 0x0
?_isr:	; 0 bytes @ 0x0
??_isr:	; 0 bytes @ 0x0
?_main:	; 2 bytes @ 0x0
	ds	5
??_init:	; 0 bytes @ 0x5
??_main:	; 0 bytes @ 0x5
;!
;!Data Sizes:
;!    Strings     0
;!    Constant    0
;!    Data        0
;!    BSS         2
;!    Persistent  0
;!    Stack       0
;!
;!Auto Spaces:
;!    Space          Size  Autos    Used
;!    COMMON           14      5       7
;!    BANK0            80      0       0
;!    BANK1            80      0       0
;!    BANK3            96      0       0
;!    BANK2            96      0       0

;!
;!Pointer List with Targets:
;!
;!    None.


;!
;!Critical Paths under _main in COMMON
;!
;!    None.
;!
;!Critical Paths under _isr in COMMON
;!
;!    None.
;!
;!Critical Paths under _main in BANK0
;!
;!    None.
;!
;!Critical Paths under _isr in BANK0
;!
;!    None.
;!
;!Critical Paths under _main in BANK1
;!
;!    None.
;!
;!Critical Paths under _isr in BANK1
;!
;!    None.
;!
;!Critical Paths under _main in BANK3
;!
;!    None.
;!
;!Critical Paths under _isr in BANK3
;!
;!    None.
;!
;!Critical Paths under _main in BANK2
;!
;!    None.
;!
;!Critical Paths under _isr in BANK2
;!
;!    None.

;;
;;Main: autosize = 0, tempsize = 0, incstack = 0, save=0
;;

;!
;!Call Graph Tables:
;!
;! ---------------------------------------------------------------------------------
;! (Depth) Function   	        Calls       Base Space   Used Autos Params    Refs
;! ---------------------------------------------------------------------------------
;! (0) _main                                                 0     0      0       0
;!                               _init
;! ---------------------------------------------------------------------------------
;! (1) _init                                                 0     0      0       0
;! ---------------------------------------------------------------------------------
;! Estimated maximum stack depth 1
;! ---------------------------------------------------------------------------------
;! (Depth) Function   	        Calls       Base Space   Used Autos Params    Refs
;! ---------------------------------------------------------------------------------
;! (2) _isr                                                  5     5      0       0
;!                                              0 COMMON     5     5      0
;! ---------------------------------------------------------------------------------
;! Estimated maximum stack depth 2
;! ---------------------------------------------------------------------------------
;!
;! Call Graph Graphs:
;!
;! _main (ROOT)
;!   _init
;!
;! _isr (ROOT)
;!

;! Address spaces:

;!Name               Size   Autos  Total    Cost      Usage
;!BITCOMMON            E      0       0       0        0.0%
;!EEDATA             100      0       0       0        0.0%
;!NULL                 0      0       0       0        0.0%
;!CODE                 0      0       0       0        0.0%
;!COMMON               E      5       7       1       50.0%
;!BITSFR0              0      0       0       1        0.0%
;!SFR0                 0      0       0       1        0.0%
;!BITSFR1              0      0       0       2        0.0%
;!SFR1                 0      0       0       2        0.0%
;!STACK                0      0       0       2        0.0%
;!ABS                  0      0       7       3        0.0%
;!BITBANK0            50      0       0       4        0.0%
;!BITSFR3              0      0       0       4        0.0%
;!SFR3                 0      0       0       4        0.0%
;!BANK0               50      0       0       5        0.0%
;!BITSFR2              0      0       0       5        0.0%
;!SFR2                 0      0       0       5        0.0%
;!BITBANK1            50      0       0       6        0.0%
;!BANK1               50      0       0       7        0.0%
;!BITBANK3            60      0       0       8        0.0%
;!BANK3               60      0       0       9        0.0%
;!BITBANK2            60      0       0      10        0.0%
;!BANK2               60      0       0      11        0.0%
;!DATA                 0      0       7      12        0.0%

	global	_main

;; *************** function _main *****************
;; Defined at:
;;		line 73 in file "C:\Users\Dinusha\Documents\PICProjects\PIC877AProjects\CProjects\Interrupts01\main.c"
;; Parameters:    Size  Location     Type
;;		None
;; Auto vars:     Size  Location     Type
;;		None
;; Return value:  Size  Location     Type
;;                  2   32[COMMON] int 
;; Registers used:
;;		wreg, status,2, status,0, pclath, cstack
;; Tracked objects:
;;		On entry : 17F/0
;;		On exit  : 0/0
;;		Unchanged: 0/0
;; Data sizes:     COMMON   BANK0   BANK1   BANK3   BANK2
;;      Params:         0       0       0       0       0
;;      Locals:         0       0       0       0       0
;;      Temps:          0       0       0       0       0
;;      Totals:         0       0       0       0       0
;;Total ram usage:        0 bytes
;; Hardware stack levels required when called:    2
;; This function calls:
;;		_init
;; This function is called by:
;;		Startup code after reset
;; This function uses a non-reentrant model
;;
psect	maintext,global,class=CODE,delta=2,split=1
	file	"C:\Users\Dinusha\Documents\PICProjects\PIC877AProjects\CProjects\Interrupts01\main.c"
	line	73
global __pmaintext
__pmaintext:	;psect for function _main
psect	maintext
	file	"C:\Users\Dinusha\Documents\PICProjects\PIC877AProjects\CProjects\Interrupts01\main.c"
	line	73
	global	__size_of_main
	__size_of_main	equ	__end_of_main-_main
	
_main:	
;incstack = 0
	opt	stack 6
; Regs used in _main: [wreg+status,2+status,0+pclath+cstack]
	line	79
	
l537:	
;main.c: 79: init();
	fcall	_init
	goto	l539
	line	85
;main.c: 85: while( 1 ){
	
l33:	
	line	104
	
l539:	
;main.c: 104: PORTB = sPORTB.port;
	movf	(_sPORTB),w	;volatile
	bcf	status, 5	;RP0=0, select bank0
	bcf	status, 6	;RP1=0, select bank0
	movwf	(6)	;volatile
	goto	l539
	line	106
	
l34:	
	line	85
	goto	l539
	
l35:	
	line	109
;main.c: 106: }
;main.c: 108: return 0;
;	Return value of _main is never used
	
l36:	
	global	start
	ljmp	start
	opt stack 0
GLOBAL	__end_of_main
	__end_of_main:
	signat	_main,90
	global	_init

;; *************** function _init *****************
;; Defined at:
;;		line 24 in file "C:\Users\Dinusha\Documents\PICProjects\PIC877AProjects\CProjects\Interrupts01\main.c"
;; Parameters:    Size  Location     Type
;;		None
;; Auto vars:     Size  Location     Type
;;		None
;; Return value:  Size  Location     Type
;;		None               void
;; Registers used:
;;		wreg, status,2
;; Tracked objects:
;;		On entry : 0/0
;;		On exit  : 0/0
;;		Unchanged: 0/0
;; Data sizes:     COMMON   BANK0   BANK1   BANK3   BANK2
;;      Params:         0       0       0       0       0
;;      Locals:         0       0       0       0       0
;;      Temps:          0       0       0       0       0
;;      Totals:         0       0       0       0       0
;;Total ram usage:        0 bytes
;; Hardware stack levels used:    1
;; Hardware stack levels required when called:    1
;; This function calls:
;;		Nothing
;; This function is called by:
;;		_main
;; This function uses a non-reentrant model
;;
psect	text1,local,class=CODE,delta=2,merge=1
	line	24
global __ptext1
__ptext1:	;psect for function _init
psect	text1
	file	"C:\Users\Dinusha\Documents\PICProjects\PIC877AProjects\CProjects\Interrupts01\main.c"
	line	24
	global	__size_of_init
	__size_of_init	equ	__end_of_init-_init
	
_init:	
;incstack = 0
	opt	stack 6
; Regs used in _init: [wreg+status,2]
	line	30
	
l497:	
;main.c: 30: TRISB = 0x00;
	bsf	status, 5	;RP0=1, select bank1
	bcf	status, 6	;RP1=0, select bank1
	clrf	(134)^080h	;volatile
	line	32
	
l499:	
;main.c: 32: ADCON1 = 0x06;
	movlw	(06h)
	movwf	(159)^080h	;volatile
	line	33
	
l501:	
;main.c: 33: PORTB = 0x00;
	bcf	status, 5	;RP0=0, select bank0
	bcf	status, 6	;RP1=0, select bank0
	clrf	(6)	;volatile
	line	34
	
l503:	
;main.c: 34: sPORTB.port = 0;
	clrf	(_sPORTB)	;volatile
	line	37
	
l505:	
;main.c: 37: OPTION_REGbits.T0CS = 0;
	bsf	status, 5	;RP0=1, select bank1
	bcf	status, 6	;RP1=0, select bank1
	bcf	(129)^080h,5	;volatile
	line	38
	
l507:	
;main.c: 38: OPTION_REGbits.T0SE = 0;
	bcf	(129)^080h,4	;volatile
	line	39
	
l509:	
;main.c: 39: OPTION_REGbits.PSA = 0;
	bcf	(129)^080h,3	;volatile
	line	42
	
l511:	
;main.c: 42: OPTION_REGbits.PS0 = 1;
	bsf	(129)^080h,0	;volatile
	line	43
	
l513:	
;main.c: 43: OPTION_REGbits.PS1 = 1;
	bsf	(129)^080h,1	;volatile
	line	44
	
l515:	
;main.c: 44: OPTION_REGbits.PS2 = 1;
	bsf	(129)^080h,2	;volatile
	line	47
	
l517:	
;main.c: 47: INTCONbits.TMR0IE = 1;
	bsf	(11),5	;volatile
	line	49
	
l519:	
;main.c: 49: (GIE = 1);
	bsf	(95/8),(95)&7	;volatile
	line	50
	
l23:	
	return
	opt stack 0
GLOBAL	__end_of_init
	__end_of_init:
	signat	_init,88
	global	_isr

;; *************** function _isr *****************
;; Defined at:
;;		line 52 in file "C:\Users\Dinusha\Documents\PICProjects\PIC877AProjects\CProjects\Interrupts01\main.c"
;; Parameters:    Size  Location     Type
;;		None
;; Auto vars:     Size  Location     Type
;;		None
;; Return value:  Size  Location     Type
;;		None               void
;; Registers used:
;;		wreg, status,2, status,0
;; Tracked objects:
;;		On entry : 0/0
;;		On exit  : 0/0
;;		Unchanged: 0/0
;; Data sizes:     COMMON   BANK0   BANK1   BANK3   BANK2
;;      Params:         0       0       0       0       0
;;      Locals:         0       0       0       0       0
;;      Temps:          5       0       0       0       0
;;      Totals:         5       0       0       0       0
;;Total ram usage:        5 bytes
;; Hardware stack levels used:    1
;; This function calls:
;;		Nothing
;; This function is called by:
;;		Interrupt level 1
;; This function uses a non-reentrant model
;;
psect	text2,local,class=CODE,delta=2,merge=1
	line	52
global __ptext2
__ptext2:	;psect for function _isr
psect	text2
	file	"C:\Users\Dinusha\Documents\PICProjects\PIC877AProjects\CProjects\Interrupts01\main.c"
	line	52
	global	__size_of_isr
	__size_of_isr	equ	__end_of_isr-_isr
	
_isr:	
;incstack = 0
	opt	stack 6
; Regs used in _isr: [wreg+status,2+status,0]
psect	intentry,class=CODE,delta=2
global __pintentry
__pintentry:
global interrupt_function
interrupt_function:
	global saved_w
	saved_w	set	btemp+0
	movwf	saved_w
	swapf	status,w
	movwf	(??_isr+1)
	movf	fsr0,w
	movwf	(??_isr+2)
	movf	pclath,w
	movwf	(??_isr+3)
	bcf	status, 5	;RP0=0, select bank0
	bcf	status, 6	;RP1=0, select bank0
	movf	btemp+1,w
	movwf	(??_isr+4)
	ljmp	_isr
psect	text2
	line	56
	
i1l521:	
;main.c: 54: static uint8_t count = 0;
;main.c: 56: if( count == 0 ){
	movf	(isr@count),f
	skipz
	goto	u1_21
	goto	u1_20
u1_21:
	goto	i1l525
u1_20:
	line	57
	
i1l523:	
;main.c: 57: sPORTB.RB2 = ~sPORTB.RB2;
	clrc
	btfss	(_sPORTB),2	;volatile
	setc
	btfsc	status,0
	goto	u2_21
	goto	u2_20
	
u2_21:
	bsf	(_sPORTB),2	;volatile
	goto	u3_24
u2_20:
	bcf	(_sPORTB),2	;volatile
u3_24:
	goto	i1l525
	line	58
	
i1l28:	
	line	61
	
i1l525:	
;main.c: 58: }
;main.c: 61: if( TMR0IE && TMR0IF ){
	btfss	(93/8),(93)&7	;volatile
	goto	u4_21
	goto	u4_20
u4_21:
	goto	i1l30
u4_20:
	
i1l527:	
	btfss	(90/8),(90)&7	;volatile
	goto	u5_21
	goto	u5_20
u5_21:
	goto	i1l30
u5_20:
	line	62
	
i1l529:	
;main.c: 62: TMR0IF = 0;
	bcf	(90/8),(90)&7	;volatile
	line	63
	
i1l531:	
;main.c: 63: TMR0 = 0;
	bcf	status, 5	;RP0=0, select bank0
	bcf	status, 6	;RP1=0, select bank0
	clrf	(1)	;volatile
	line	67
	
i1l533:	
;main.c: 67: count++;
	movlw	(01h)
	movwf	(??_isr+0)+0
	movf	(??_isr+0)+0,w
	addwf	(isr@count),f
	goto	i1l30
	line	69
	
i1l535:	
;main.c: 69: return;
	goto	i1l30
	line	70
	
i1l29:	
	line	71
	
i1l30:	
	movf	(??_isr+4),w
	bcf	status, 5	;RP0=0, select bank0
	bcf	status, 6	;RP1=0, select bank0
	movwf	btemp+1
	movf	(??_isr+3),w
	movwf	pclath
	movf	(??_isr+2),w
	movwf	fsr0
	swapf	(??_isr+1)^0FFFFFF80h,w
	movwf	status
	swapf	saved_w,f
	swapf	saved_w,w
	retfie
	opt stack 0
GLOBAL	__end_of_isr
	__end_of_isr:
	signat	_isr,88
global	___latbits
___latbits	equ	2
	global	btemp
	btemp set 07Eh

	DABS	1,126,2	;btemp
	global	wtemp
	global	wtemp0
	wtemp set btemp
	wtemp0 set btemp
	global	wtemp1
	wtemp1 set btemp+2
	global	wtemp2
	wtemp2 set btemp+4
	global	wtemp3
	wtemp3 set btemp+6
	global	wtemp4
	wtemp4 set btemp+8
	global	wtemp5
	wtemp5 set btemp+10
	global	wtemp6
	wtemp6 set btemp+1
	global	ttemp
	global	ttemp0
	ttemp set btemp
	ttemp0 set btemp
	global	ttemp1
	ttemp1 set btemp+3
	global	ttemp2
	ttemp2 set btemp+6
	global	ttemp3
	ttemp3 set btemp+9
	global	ttemp4
	ttemp4 set btemp+1
	global	ltemp
	global	ltemp0
	ltemp set btemp
	ltemp0 set btemp
	global	ltemp1
	ltemp1 set btemp+4
	global	ltemp2
	ltemp2 set btemp+8
	global	ltemp3
	ltemp3 set btemp+2
	end
